target datalayout = "e-m:e-p270:32:32-p271:32:32-p272:64:64-i64:64-i128:128-f80:128-n8:16:32:64-S128"
target triple = "x86_64-pc-linux-gnu"

%struct.grep_source = type { ptr, i32, ptr, ptr, ptr, i64, ptr, ptr }

; Function Attrs: nounwind uwtable
define dso_local void @grep_source_clear_data(ptr noundef %0) #0 {
  %2 = alloca ptr, align 8
  store ptr %0, ptr %2, align 8, !tbaa !85
  %3 = load ptr, ptr %2, align 8, !tbaa !85
  %4 = getelementptr inbounds nuw %struct.grep_source, ptr %3, i32 0, i32 1
  %5 = load i32, ptr %4, align 8, !tbaa !134
  switch i32 %5, label %14 [
    i32 1, label %6
    i32 0, label %6
    i32 2, label %14
  ]

6:                                                ; preds = %1, %1
  %7 = load ptr, ptr %2, align 8, !tbaa !85
  %8 = getelementptr inbounds nuw %struct.grep_source, ptr %7, i32 0, i32 4
  %9 = load ptr, ptr %8, align 8, !tbaa !122
  call void @free(ptr noundef %9) #11
  %10 = load ptr, ptr %2, align 8, !tbaa !85
  %11 = getelementptr inbounds nuw %struct.grep_source, ptr %10, i32 0, i32 4
  store ptr null, ptr %11, align 8, !tbaa !122
  %12 = load ptr, ptr %2, align 8, !tbaa !85
  %13 = getelementptr inbounds nuw %struct.grep_source, ptr %12, i32 0, i32 5
  store i64 0, ptr %13, align 8, !tbaa !123
  br label %14

14:                                               ; preds = %1, %1, %6
  ret void
}