; Function Attrs: mustprogress nounwind willreturn uwtable
define dso_local void @grep_source_clear_data(ptr noundef captures(none) %0) local_unnamed_addr #8 {
  %2 = getelementptr inbounds nuw i8, ptr %0, i64 8
  %3 = load i32, ptr %2, align 8, !tbaa !117
  %switch = icmp ult i32 %3, 2
  br i1 %switch, label %4, label %7

4:                                                ; preds = %1
  %5 = getelementptr inbounds nuw i8, ptr %0, i64 32
  %6 = load ptr, ptr %5, align 8, !tbaa !119
  tail call void @free(ptr noundef %6) #18
  tail call void @llvm.memset.p0.i64(ptr noundef nonnull align 8 dereferenceable(16) %5, i8 0, i64 16, i1 false)
  br label %7

7:                                                ; preds = %1, %4
  ret void
}